target datalayout = "e-m:e-p270:32:32-p271:32:32-p272:64:64-i64:64-i128:128-f80:128-n8:16:32:64-S128"
target triple = "x86_64-pc-linux-gnu"

%struct.prov_aes_hmac_sha_ctx_st = type { %struct.prov_cipher_ctx_st, %struct.aes_key_st, i64, %union.anon.0, ptr, i32, i32, i64, i64, i64 }
%struct.prov_cipher_ctx_st = type { [16 x i8], [16 x i8], [16 x i8], ptr, %union.anon, i32, i64, i64, i64, i64, i32, i8, i32, ptr, i32, i64, i32, i64, i32, ptr, ptr, ptr }
%union.anon = type { ptr }
%struct.aes_key_st = type { [60 x i32], i32 }
%union.anon.0 = type { i32, [12 x i8] }
%struct.prov_aes_hmac_sha1_ctx_st = type { %struct.prov_aes_hmac_sha_ctx_st, %struct.SHAstate_st, %struct.SHAstate_st, %struct.SHAstate_st }
%struct.SHAstate_st = type { i32, i32, i32, i32, i32, i32, i32, [16 x i32], i32 }
%struct.EVP_CTRL_TLS1_1_MULTIBLOCK_PARAM = type { ptr, ptr, i64, i32 }

@OPENSSL_ia32cap_P = external global [0 x i32], align 4

; Function Attrs: nounwind uwtable
define internal void @sha1_update(ptr noundef %0, ptr noundef %1, i64 noundef %2) #0 {
  %4 = alloca ptr, align 8
  %5 = alloca ptr, align 8
  %6 = alloca i64, align 8
  %7 = alloca ptr, align 8
  %8 = alloca i64, align 8
  store ptr %0, ptr %4, align 8, !tbaa !62
  store ptr %1, ptr %5, align 8, !tbaa !36
  store i64 %2, ptr %6, align 8, !tbaa !12
  call void @llvm.lifetime.start.p0(i64 8, ptr %7) #7
  %9 = load ptr, ptr %5, align 8, !tbaa !36
  store ptr %9, ptr %7, align 8, !tbaa !10
  call void @llvm.lifetime.start.p0(i64 8, ptr %8) #7
  %10 = load ptr, ptr %4, align 8, !tbaa !62
  %11 = getelementptr inbounds nuw %struct.SHAstate_st, ptr %10, i32 0, i32 8
  %12 = load i32, ptr %11, align 4, !tbaa !64
  %13 = zext i32 %12 to i64
  store i64 %13, ptr %8, align 8, !tbaa !12
  %14 = icmp ne i64 %13, 0
  br i1 %14, label %15, label %34

15:                                               ; preds = %3
  %16 = load i64, ptr %8, align 8, !tbaa !12
  %17 = sub i64 64, %16
  store i64 %17, ptr %8, align 8, !tbaa !12
  %18 = load i64, ptr %6, align 8, !tbaa !12
  %19 = load i64, ptr %8, align 8, !tbaa !12
  %20 = icmp ult i64 %18, %19
  br i1 %20, label %21, label %23

21:                                               ; preds = %15
  %22 = load i64, ptr %6, align 8, !tbaa !12
  store i64 %22, ptr %8, align 8, !tbaa !12
  br label %23

23:                                               ; preds = %21, %15
  %24 = load ptr, ptr %4, align 8, !tbaa !62
  %25 = load ptr, ptr %7, align 8, !tbaa !10
  %26 = load i64, ptr %8, align 8, !tbaa !12
  %27 = call i32 @SHA1_Update(ptr noundef %24, ptr noundef %25, i64 noundef %26)
  %28 = load i64, ptr %8, align 8, !tbaa !12
  %29 = load ptr, ptr %7, align 8, !tbaa !10
  %30 = getelementptr inbounds nuw i8, ptr %29, i64 %28
  store ptr %30, ptr %7, align 8, !tbaa !10
  %31 = load i64, ptr %8, align 8, !tbaa !12
  %32 = load i64, ptr %6, align 8, !tbaa !12
  %33 = sub i64 %32, %31
  store i64 %33, ptr %6, align 8, !tbaa !12
  br label %34

34:                                               ; preds = %23, %3
  %35 = load i64, ptr %6, align 8, !tbaa !12
  %36 = urem i64 %35, 64
  store i64 %36, ptr %8, align 8, !tbaa !12
  %37 = load i64, ptr %8, align 8, !tbaa !12
  %38 = load i64, ptr %6, align 8, !tbaa !12
  %39 = sub i64 %38, %37
  store i64 %39, ptr %6, align 8, !tbaa !12
  %40 = load i64, ptr %6, align 8, !tbaa !12
  %41 = icmp ne i64 %40, 0
  br i1 %41, label %42, label %78

42:                                               ; preds = %34
  %43 = load ptr, ptr %4, align 8, !tbaa !62
  %44 = load ptr, ptr %7, align 8, !tbaa !10
  %45 = load i64, ptr %6, align 8, !tbaa !12
  %46 = udiv i64 %45, 64
  call void @sha1_block_data_order(ptr noundef %43, ptr noundef %44, i64 noundef %46)
  %47 = load i64, ptr %6, align 8, !tbaa !12
  %48 = load ptr, ptr %7, align 8, !tbaa !10
  %49 = getelementptr inbounds nuw i8, ptr %48, i64 %47
  store ptr %49, ptr %7, align 8, !tbaa !10
  %50 = load i64, ptr %6, align 8, !tbaa !12
  %51 = lshr i64 %50, 29
  %52 = load ptr, ptr %4, align 8, !tbaa !62
  %53 = getelementptr inbounds nuw %struct.SHAstate_st, ptr %52, i32 0, i32 6
  %54 = load i32, ptr %53, align 4, !tbaa !65
  %55 = zext i32 %54 to i64
  %56 = add i64 %55, %51
  %57 = trunc i64 %56 to i32
  store i32 %57, ptr %53, align 4, !tbaa !65
  %58 = load i64, ptr %6, align 8, !tbaa !12
  %59 = shl i64 %58, 3
  store i64 %59, ptr %6, align 8, !tbaa !12
  %60 = load ptr, ptr %4, align 8, !tbaa !62
  %61 = getelementptr inbounds nuw %struct.SHAstate_st, ptr %60, i32 0, i32 5
  %62 = load i32, ptr %61, align 4, !tbaa !66
  %63 = zext i32 %62 to i64
  %64 = add i64 %63, %59
  %65 = trunc i64 %64 to i32
  store i32 %65, ptr %61, align 4, !tbaa !66
  %66 = load ptr, ptr %4, align 8, !tbaa !62
  %67 = getelementptr inbounds nuw %struct.SHAstate_st, ptr %66, i32 0, i32 5
  %68 = load i32, ptr %67, align 4, !tbaa !66
  %69 = load i64, ptr %6, align 8, !tbaa !12
  %70 = trunc i64 %69 to i32
  %71 = icmp ult i32 %68, %70
  br i1 %71, label %72, label %77

72:                                               ; preds = %42
  %73 = load ptr, ptr %4, align 8, !tbaa !62
  %74 = getelementptr inbounds nuw %struct.SHAstate_st, ptr %73, i32 0, i32 6
  %75 = load i32, ptr %74, align 4, !tbaa !65
  %76 = add i32 %75, 1
  store i32 %76, ptr %74, align 4, !tbaa !65
  br label %77

77:                                               ; preds = %72, %42
  br label %78

78:                                               ; preds = %77, %34
  %79 = load i64, ptr %8, align 8, !tbaa !12
  %80 = icmp ne i64 %79, 0
  br i1 %80, label %81, label %86

81:                                               ; preds = %78
  %82 = load ptr, ptr %4, align 8, !tbaa !62
  %83 = load ptr, ptr %7, align 8, !tbaa !10
  %84 = load i64, ptr %8, align 8, !tbaa !12
  %85 = call i32 @SHA1_Update(ptr noundef %82, ptr noundef %83, i64 noundef %84)
  br label %86

86:                                               ; preds = %81, %78
  call void @llvm.lifetime.end.p0(i64 8, ptr %8) #7
  call void @llvm.lifetime.end.p0(i64 8, ptr %7) #7
  ret void
}

; Function Attrs: nounwind uwtable
define internal i32 @aesni_cbc_hmac_sha1_tls1_multiblock_aad(ptr noundef %0, ptr noundef %1) #0 {
  %3 = alloca i32, align 4
  %4 = alloca ptr, align 8
  %5 = alloca ptr, align 8
  %6 = alloca ptr, align 8
  %7 = alloca ptr, align 8
  %8 = alloca i32, align 4
  %9 = alloca i32, align 4
  %10 = alloca i32, align 4
  %11 = alloca i32, align 4
  %12 = alloca i32, align 4
  %13 = alloca i32, align 4
  %14 = alloca i32, align 4
  store ptr %0, ptr %4, align 8, !tbaa !36
  store ptr %1, ptr %5, align 8, !tbaa !36
  call void @llvm.lifetime.start.p0(i64 8, ptr %6) #7
  %15 = load ptr, ptr %4, align 8, !tbaa !36
  store ptr %15, ptr %6, align 8, !tbaa !14
  call void @llvm.lifetime.start.p0(i64 8, ptr %7) #7
  %16 = load ptr, ptr %4, align 8, !tbaa !36
  store ptr %16, ptr %7, align 8, !tbaa !16
  call void @llvm.lifetime.start.p0(i64 4, ptr %8) #7
  store i32 1, ptr %8, align 4, !tbaa !3
  call void @llvm.lifetime.start.p0(i64 4, ptr %9) #7
  call void @llvm.lifetime.start.p0(i64 4, ptr %10) #7
  call void @llvm.lifetime.start.p0(i64 4, ptr %11) #7
  call void @llvm.lifetime.start.p0(i64 4, ptr %12) #7
  call void @llvm.lifetime.start.p0(i64 4, ptr %13) #7
  %17 = load ptr, ptr %5, align 8, !tbaa !36
  %18 = getelementptr inbounds nuw %struct.EVP_CTRL_TLS1_1_MULTIBLOCK_PARAM, ptr %17, i32 0, i32 1
  %19 = load ptr, ptr %18, align 8, !tbaa !55
  %20 = getelementptr inbounds i8, ptr %19, i64 11
  %21 = load i8, ptr %20, align 1, !tbaa !19
  %22 = zext i8 %21 to i32
  %23 = shl i32 %22, 8
  %24 = load ptr, ptr %5, align 8, !tbaa !36
  %25 = getelementptr inbounds nuw %struct.EVP_CTRL_TLS1_1_MULTIBLOCK_PARAM, ptr %24, i32 0, i32 1
  %26 = load ptr, ptr %25, align 8, !tbaa !55
  %27 = getelementptr inbounds i8, ptr %26, i64 12
  %28 = load i8, ptr %27, align 1, !tbaa !19
  %29 = zext i8 %28 to i32
  %30 = or i32 %23, %29
  store i32 %30, ptr %13, align 4, !tbaa !3
  %31 = load ptr, ptr %5, align 8, !tbaa !36
  %32 = getelementptr inbounds nuw %struct.EVP_CTRL_TLS1_1_MULTIBLOCK_PARAM, ptr %31, i32 0, i32 3
  %33 = load i32, ptr %32, align 8, !tbaa !57
  %34 = load ptr, ptr %6, align 8, !tbaa !14
  %35 = getelementptr inbounds nuw %struct.prov_aes_hmac_sha_ctx_st, ptr %34, i32 0, i32 5
  store i32 %33, ptr %35, align 8, !tbaa !58
  %36 = load ptr, ptr %6, align 8, !tbaa !14
  %37 = getelementptr inbounds nuw %struct.prov_aes_hmac_sha_ctx_st, ptr %36, i32 0, i32 0
  %38 = getelementptr inbounds nuw %struct.prov_cipher_ctx_st, ptr %37, i32 0, i32 11
  %39 = load i8, ptr %38, align 4
  %40 = lshr i8 %39, 1
  %41 = and i8 %40, 1
  %42 = zext i8 %41 to i32
  %43 = icmp ne i32 %42, 0
  br i1 %43, label %44, label %162

44:                                               ; preds = %2
  %45 = load ptr, ptr %5, align 8, !tbaa !36
  %46 = getelementptr inbounds nuw %struct.EVP_CTRL_TLS1_1_MULTIBLOCK_PARAM, ptr %45, i32 0, i32 1
  %47 = load ptr, ptr %46, align 8, !tbaa !55
  %48 = getelementptr inbounds i8, ptr %47, i64 9
  %49 = load i8, ptr %48, align 1, !tbaa !19
  %50 = zext i8 %49 to i32
  %51 = shl i32 %50, 8
  %52 = load ptr, ptr %5, align 8, !tbaa !36
  %53 = getelementptr inbounds nuw %struct.EVP_CTRL_TLS1_1_MULTIBLOCK_PARAM, ptr %52, i32 0, i32 1
  %54 = load ptr, ptr %53, align 8, !tbaa !55
  %55 = getelementptr inbounds i8, ptr %54, i64 10
  %56 = load i8, ptr %55, align 1, !tbaa !19
  %57 = zext i8 %56 to i32
  %58 = or i32 %51, %57
  %59 = icmp slt i32 %58, 770
  br i1 %59, label %60, label %61

60:                                               ; preds = %44
  store i32 -1, ptr %3, align 4
  store i32 1, ptr %14, align 4
  br label %163

61:                                               ; preds = %44
  %62 = load i32, ptr %13, align 4, !tbaa !3
  %63 = icmp ne i32 %62, 0
  br i1 %63, label %64, label %77

64:                                               ; preds = %61
  %65 = load i32, ptr %13, align 4, !tbaa !3
  %66 = icmp ult i32 %65, 4096
  br i1 %66, label %67, label %68

67:                                               ; preds = %64
  store i32 0, ptr %3, align 4
  store i32 1, ptr %14, align 4
  br label %163

68:                                               ; preds = %64
  %69 = load i32, ptr %13, align 4, !tbaa !3
  %70 = icmp uge i32 %69, 8192
  br i1 %70, label %71, label %76

71:                                               ; preds = %68
  %72 = load i32, ptr getelementptr inbounds ([0 x i32], ptr @OPENSSL_ia32cap_P, i64 0, i64 2), align 4, !tbaa !3
  %73 = and i32 %72, 32
  %74 = icmp ne i32 %73, 0
  br i1 %74, label %75, label %76

75:                                               ; preds = %71
  store i32 2, ptr %8, align 4, !tbaa !3
  br label %76

76:                                               ; preds = %75, %71, %68
  br label %93

77:                                               ; preds = %61
  %78 = load ptr, ptr %5, align 8, !tbaa !36
  %79 = getelementptr inbounds nuw %struct.EVP_CTRL_TLS1_1_MULTIBLOCK_PARAM, ptr %78, i32 0, i32 3
  %80 = load i32, ptr %79, align 8, !tbaa !57
  %81 = udiv i32 %80, 4
  store i32 %81, ptr %8, align 4, !tbaa !3
  %82 = icmp ne i32 %81, 0
  br i1 %82, label %83, label %91

83:                                               ; preds = %77
  %84 = load i32, ptr %8, align 4, !tbaa !3
  %85 = icmp ule i32 %84, 2
  br i1 %85, label %86, label %91

86:                                               ; preds = %83
  %87 = load ptr, ptr %5, align 8, !tbaa !36
  %88 = getelementptr inbounds nuw %struct.EVP_CTRL_TLS1_1_MULTIBLOCK_PARAM, ptr %87, i32 0, i32 2
  %89 = load i64, ptr %88, align 8, !tbaa !59
  %90 = trunc i64 %89 to i32
  store i32 %90, ptr %13, align 4, !tbaa !3
  br label %92

91:                                               ; preds = %83, %77
  store i32 -1, ptr %3, align 4
  store i32 1, ptr %14, align 4
  br label %163

92:                                               ; preds = %86
  br label %93

93:                                               ; preds = %92, %76
  %94 = load ptr, ptr %7, align 8, !tbaa !16
  %95 = getelementptr inbounds nuw %struct.prov_aes_hmac_sha1_ctx_st, ptr %94, i32 0, i32 3
  %96 = load ptr, ptr %7, align 8, !tbaa !16
  %97 = getelementptr inbounds nuw %struct.prov_aes_hmac_sha1_ctx_st, ptr %96, i32 0, i32 1
  call void @llvm.memcpy.p0.p0.i64(ptr align 8 %95, ptr align 8 %97, i64 96, i1 false), !tbaa.struct !18
  %98 = load ptr, ptr %7, align 8, !tbaa !16
  %99 = getelementptr inbounds nuw %struct.prov_aes_hmac_sha1_ctx_st, ptr %98, i32 0, i32 3
  %100 = load ptr, ptr %5, align 8, !tbaa !36
  %101 = getelementptr inbounds nuw %struct.EVP_CTRL_TLS1_1_MULTIBLOCK_PARAM, ptr %100, i32 0, i32 1
  %102 = load ptr, ptr %101, align 8, !tbaa !55
  call void @sha1_update(ptr noundef %99, ptr noundef %102, i64 noundef 13)
  %103 = load i32, ptr %8, align 4, !tbaa !3
  %104 = mul i32 4, %103
  store i32 %104, ptr %9, align 4, !tbaa !3
  %105 = load i32, ptr %8, align 4, !tbaa !3
  %106 = add i32 %105, 1
  store i32 %106, ptr %8, align 4, !tbaa !3
  %107 = load i32, ptr %13, align 4, !tbaa !3
  %108 = load i32, ptr %8, align 4, !tbaa !3
  %109 = lshr i32 %107, %108
  store i32 %109, ptr %10, align 4, !tbaa !3
  %110 = load i32, ptr %13, align 4, !tbaa !3
  %111 = load i32, ptr %10, align 4, !tbaa !3
  %112 = add i32 %110, %111
  %113 = load i32, ptr %10, align 4, !tbaa !3
  %114 = load i32, ptr %8, align 4, !tbaa !3
  %115 = shl i32 %113, %114
  %116 = sub i32 %112, %115
  store i32 %116, ptr %11, align 4, !tbaa !3
  %117 = load i32, ptr %11, align 4, !tbaa !3
  %118 = load i32, ptr %10, align 4, !tbaa !3
  %119 = icmp ugt i32 %117, %118
  br i1 %119, label %120, label %135

120:                                              ; preds = %93
  %121 = load i32, ptr %11, align 4, !tbaa !3
  %122 = add i32 %121, 13
  %123 = add i32 %122, 9
  %124 = urem i32 %123, 64
  %125 = load i32, ptr %9, align 4, !tbaa !3
  %126 = sub i32 %125, 1
  %127 = icmp ult i32 %124, %126
  br i1 %127, label %128, label %135

128:                                              ; preds = %120
  %129 = load i32, ptr %10, align 4, !tbaa !3
  %130 = add i32 %129, 1
  store i32 %130, ptr %10, align 4, !tbaa !3
  %131 = load i32, ptr %9, align 4, !tbaa !3
  %132 = sub i32 %131, 1
  %133 = load i32, ptr %11, align 4, !tbaa !3
  %134 = sub i32 %133, %132
  store i32 %134, ptr %11, align 4, !tbaa !3
  br label %135

135:                                              ; preds = %128, %120, %93
  %136 = load i32, ptr %10, align 4, !tbaa !3
  %137 = add i32 %136, 20
  %138 = add i32 %137, 16
  %139 = and i32 %138, -16
  %140 = add i32 21, %139
  store i32 %140, ptr %12, align 4, !tbaa !3
  %141 = load i32, ptr %12, align 4, !tbaa !3
  %142 = load i32, ptr %8, align 4, !tbaa !3
  %143 = shl i32 %141, %142
  %144 = load i32, ptr %12, align 4, !tbaa !3
  %145 = sub i32 %143, %144
  store i32 %145, ptr %12, align 4, !tbaa !3
  %146 = load i32, ptr %11, align 4, !tbaa !3
  %147 = add i32 %146, 20
  %148 = add i32 %147, 16
  %149 = and i32 %148, -16
  %150 = add i32 21, %149
  %151 = load i32, ptr %12, align 4, !tbaa !3
  %152 = add i32 %151, %150
  store i32 %152, ptr %12, align 4, !tbaa !3
  %153 = load i32, ptr %9, align 4, !tbaa !3
  %154 = load ptr, ptr %5, align 8, !tbaa !36
  %155 = getelementptr inbounds nuw %struct.EVP_CTRL_TLS1_1_MULTIBLOCK_PARAM, ptr %154, i32 0, i32 3
  store i32 %153, ptr %155, align 8, !tbaa !57
  %156 = load i32, ptr %9, align 4, !tbaa !3
  %157 = load ptr, ptr %6, align 8, !tbaa !14
  %158 = getelementptr inbounds nuw %struct.prov_aes_hmac_sha_ctx_st, ptr %157, i32 0, i32 5
  store i32 %156, ptr %158, align 8, !tbaa !58
  %159 = load i32, ptr %12, align 4, !tbaa !3
  %160 = load ptr, ptr %6, align 8, !tbaa !14
  %161 = getelementptr inbounds nuw %struct.prov_aes_hmac_sha_ctx_st, ptr %160, i32 0, i32 6
  store i32 %159, ptr %161, align 4, !tbaa !60
  store i32 1, ptr %3, align 4
  store i32 1, ptr %14, align 4
  br label %163

162:                                              ; preds = %2
  store i32 -1, ptr %3, align 4
  store i32 1, ptr %14, align 4
  br label %163

163:                                              ; preds = %162, %135, %91, %67, %60
  call void @llvm.lifetime.end.p0(i64 4, ptr %13) #7
  call void @llvm.lifetime.end.p0(i64 4, ptr %12) #7
  call void @llvm.lifetime.end.p0(i64 4, ptr %11) #7
  call void @llvm.lifetime.end.p0(i64 4, ptr %10) #7
  call void @llvm.lifetime.end.p0(i64 4, ptr %9) #7
  call void @llvm.lifetime.end.p0(i64 4, ptr %8) #7
  call void @llvm.lifetime.end.p0(i64 8, ptr %7) #7
  call void @llvm.lifetime.end.p0(i64 8, ptr %6) #7
  %164 = load i32, ptr %3, align 4
  ret i32 %164
}