; Function Attrs: nounwind uwtable
define internal range(i32 -1, 2) i32 @aesni_cbc_hmac_sha1_tls1_multiblock_aad(ptr noundef initializes((472, 476)) %0, ptr noundef captures(none) %1) #2 {
  %3 = getelementptr inbounds nuw i8, ptr %1, i64 8
  %4 = load ptr, ptr %3, align 8, !tbaa !48
  %5 = getelementptr inbounds nuw i8, ptr %4, i64 11
  %6 = load i8, ptr %5, align 1, !tbaa !8
  %7 = zext i8 %6 to i32
  %8 = shl nuw nsw i32 %7, 8
  %9 = getelementptr inbounds nuw i8, ptr %4, i64 12
  %10 = load i8, ptr %9, align 1, !tbaa !8
  %11 = zext i8 %10 to i32
  %12 = or disjoint i32 %8, %11
  %13 = getelementptr inbounds nuw i8, ptr %1, i64 24
  %14 = load i32, ptr %13, align 8, !tbaa !50
  %15 = getelementptr inbounds nuw i8, ptr %0, i64 472
  store i32 %14, ptr %15, align 8, !tbaa !51
  %16 = getelementptr inbounds nuw i8, ptr %0, i64 108
  %17 = load i8, ptr %16, align 4
  %18 = and i8 %17, 2
  %.not = icmp eq i8 %18, 0
  br i1 %.not, label %83, label %19

19:                                               ; preds = %2
  %20 = getelementptr inbounds nuw i8, ptr %4, i64 9
  %21 = load i8, ptr %20, align 1, !tbaa !8
  %22 = zext i8 %21 to i32
  %23 = shl nuw nsw i32 %22, 8
  %24 = getelementptr inbounds nuw i8, ptr %4, i64 10
  %25 = load i8, ptr %24, align 1, !tbaa !8
  %26 = zext i8 %25 to i32
  %27 = or disjoint i32 %23, %26
  %28 = icmp samesign ult i32 %27, 770
  br i1 %28, label %83, label %29

29:                                               ; preds = %19
  %.not57 = icmp eq i32 %12, 0
  br i1 %.not57, label %37, label %30

30:                                               ; preds = %29
  %31 = icmp ult i8 %6, 16
  br i1 %31, label %83, label %32

32:                                               ; preds = %30
  %33 = icmp ugt i8 %6, 31
  br i1 %33, label %34, label %44

34:                                               ; preds = %32
  %35 = load i32, ptr getelementptr inbounds nuw (i8, ptr @OPENSSL_ia32cap_P, i64 8), align 4, !tbaa !3
  %36 = and i32 %35, 32
  %.not58 = icmp eq i32 %36, 0
  %spec.select = select i1 %.not58, i32 1, i32 2
  br label %44

37:                                               ; preds = %29
  %38 = add i32 %14, -4
  %or.cond = icmp ult i32 %38, 8
  br i1 %or.cond, label %39, label %83

39:                                               ; preds = %37
  %40 = lshr i32 %14, 2
  %41 = getelementptr inbounds nuw i8, ptr %1, i64 16
  %42 = load i64, ptr %41, align 8, !tbaa !52
  %43 = trunc i64 %42 to i32
  br label %44

44:                                               ; preds = %34, %32, %39
  %.050 = phi i32 [ 1, %32 ], [ %40, %39 ], [ %spec.select, %34 ]
  %.0 = phi i32 [ %12, %32 ], [ %43, %39 ], [ %12, %34 ]
  %45 = getelementptr inbounds nuw i8, ptr %0, i64 696
  %46 = getelementptr inbounds nuw i8, ptr %0, i64 504
  tail call void @llvm.memcpy.p0.p0.i64(ptr noundef nonnull align 8 dereferenceable(96) %45, ptr noundef nonnull align 8 dereferenceable(96) %46, i64 96, i1 false), !tbaa.struct !7
  %47 = load ptr, ptr %3, align 8, !tbaa !48
  %48 = getelementptr inbounds nuw i8, ptr %0, i64 788
  %49 = load i32, ptr %48, align 4, !tbaa !28
  %.not.i = icmp eq i32 %49, 0
  br i1 %.not.i, label %.thread62, label %50

50:                                               ; preds = %44
  %51 = zext i32 %49 to i64
  %52 = sub nsw i64 64, %51
  %spec.select.i = tail call i64 @llvm.umin.i64(i64 %52, i64 13)
  %53 = tail call i32 @SHA1_Update(ptr noundef nonnull %45, ptr noundef %47, i64 noundef %spec.select.i) #9
  %54 = getelementptr inbounds nuw i8, ptr %47, i64 %spec.select.i
  %55 = sub nuw nsw i64 13, %spec.select.i
  %.not40.i = icmp ugt i64 %52, 12
  br i1 %.not40.i, label %sha1_update.exit, label %.thread62

.thread62:                                        ; preds = %44, %50
  %.1.i65 = phi ptr [ %54, %50 ], [ %47, %44 ]
  %56 = phi i64 [ %55, %50 ], [ 13, %44 ]
  %57 = tail call i32 @SHA1_Update(ptr noundef nonnull %45, ptr noundef %.1.i65, i64 noundef %56) #9
  br label %sha1_update.exit

sha1_update.exit:                                 ; preds = %50, %.thread62
  %58 = shl nuw nsw i32 %.050, 2
  %59 = add nuw nsw i32 %.050, 1
  %60 = lshr i32 %.0, %59
  %61 = add i32 %60, %.0
  %62 = shl i32 %60, %59
  %63 = sub i32 %61, %62
  %64 = icmp ugt i32 %63, %60
  br i1 %64, label %65, label %73

65:                                               ; preds = %sha1_update.exit
  %66 = add i32 %63, 22
  %67 = and i32 %66, 63
  %68 = add nsw i32 %58, -1
  %69 = icmp samesign ult i32 %67, %68
  br i1 %69, label %70, label %73

70:                                               ; preds = %65
  %71 = add nuw nsw i32 %60, 1
  %72 = sub i32 %63, %68
  br label %73

73:                                               ; preds = %70, %65, %sha1_update.exit
  %.049 = phi i32 [ %71, %70 ], [ %60, %65 ], [ %60, %sha1_update.exit ]
  %.048 = phi i32 [ %72, %70 ], [ %63, %65 ], [ %63, %sha1_update.exit ]
  %74 = add nuw nsw i32 %.049, 36
  %75 = and i32 %74, -16
  %76 = add nuw nsw i32 %75, 21
  %77 = shl i32 %76, %59
  %78 = add i32 %.048, 36
  %79 = and i32 %78, -16
  %80 = sub i32 %79, %75
  %81 = add i32 %80, %77
  store i32 %58, ptr %13, align 8, !tbaa !50
  store i32 %58, ptr %15, align 8, !tbaa !51
  %82 = getelementptr inbounds nuw i8, ptr %0, i64 476
  store i32 %81, ptr %82, align 4, !tbaa !53
  br label %83

83:                                               ; preds = %2, %37, %30, %19, %73
  %.047 = phi i32 [ 1, %73 ], [ -1, %19 ], [ 0, %30 ], [ -1, %37 ], [ -1, %2 ]
  ret i32 %.047
}